target datalayout = "e-m:e-p270:32:32-p271:32:32-p272:64:64-i64:64-i128:128-f80:128-n8:16:32:64-S128"
target triple = "x86_64-pc-linux-gnu"

; Function Attrs: mustprogress nounwind uwtable
define linkonce_odr noundef nonnull align 4 dereferenceable(4) ptr @_ZSt3maxIiERKT_S2_S2_(ptr noundef nonnull align 4 dereferenceable(4) %0, ptr noundef nonnull align 4 dereferenceable(4) %1) #1 comdat {
  %3 = alloca ptr, align 8
  %4 = alloca ptr, align 8
  %5 = alloca ptr, align 8
  store ptr %0, ptr %4, align 8
  store ptr %1, ptr %5, align 8
  %6 = load ptr, ptr %4, align 8
  %7 = load i32, ptr %6, align 4
  %8 = load ptr, ptr %5, align 8
  %9 = load i32, ptr %8, align 4
  %10 = icmp slt i32 %7, %9
  br i1 %10, label %11, label %13

11:                                               ; preds = %2
  %12 = load ptr, ptr %5, align 8
  store ptr %12, ptr %3, align 8
  br label %15

13:                                               ; preds = %2
  %14 = load ptr, ptr %4, align 8
  store ptr %14, ptr %3, align 8
  br label %15

15:                                               ; preds = %13, %11
  %16 = load ptr, ptr %3, align 8
  ret ptr %16
}

; Function Attrs: mustprogress nounwind uwtable
define linkonce_odr noundef i32 @_ZN10OpenSubdiv6v3_6_03Bfr4qsub18CountUniformFacetsEiib(i32 noundef %0, i32 noundef %1, i1 noundef zeroext %2) #1 comdat align 2 {
  %4 = alloca i32, align 4
  %5 = alloca i32, align 4
  %6 = alloca i8, align 1
  %7 = alloca i8, align 1
  %8 = alloca i32, align 4
  %9 = alloca i32, align 4
  %10 = alloca i32, align 4
  store i32 %0, ptr %4, align 4
  store i32 %1, ptr %5, align 4
  %11 = zext i1 %2 to i8
  store i8 %11, ptr %6, align 1
  %12 = load i32, ptr %5, align 4
  %13 = and i32 %12, 1
  %14 = icmp ne i32 %13, 0
  %15 = zext i1 %14 to i8
  store i8 %15, ptr %7, align 1
  %16 = load i32, ptr %5, align 4
  %17 = sdiv i32 %16, 2
  store i32 %17, ptr %8, align 4
  %18 = load i32, ptr %8, align 4
  %19 = load i8, ptr %7, align 1
  %20 = trunc i8 %19 to i1
  %21 = zext i1 %20 to i32
  %22 = add nsw i32 %18, %21
  %23 = load i32, ptr %8, align 4
  %24 = mul nsw i32 %22, %23
  %25 = load i32, ptr %4, align 4
  %26 = mul nsw i32 %24, %25
  store i32 %26, ptr %9, align 4
  %27 = load i8, ptr %7, align 1
  %28 = trunc i8 %27 to i1
  br i1 %28, label %29, label %37

29:                                               ; preds = %3
  %30 = load i32, ptr %4, align 4
  %31 = icmp eq i32 %30, 3
  br i1 %31, label %32, label %33

32:                                               ; preds = %29
  br label %35

33:                                               ; preds = %29
  %34 = load i32, ptr %4, align 4
  br label %35

35:                                               ; preds = %33, %32
  %36 = phi i32 [ 1, %32 ], [ %34, %33 ]
  br label %38

37:                                               ; preds = %3
  br label %38

38:                                               ; preds = %37, %35
  %39 = phi i32 [ %36, %35 ], [ 0, %37 ]
  store i32 %39, ptr %10, align 4
  %40 = load i32, ptr %9, align 4
  %41 = load i8, ptr %6, align 1
  %42 = trunc i8 %41 to i1
  %43 = zext i1 %42 to i32
  %44 = shl i32 %40, %43
  %45 = load i32, ptr %10, align 4
  %46 = add nsw i32 %44, %45
  ret i32 %46
}

; Function Attrs: mustprogress uwtable
define noundef i32 @_ZN10OpenSubdiv6v3_6_03Bfr4qsub21CountNonUniformFacetsEiPKiib(i32 noundef %0, ptr noundef %1, i32 noundef %2, i1 noundef zeroext %3) #0 align 2 {
  %5 = alloca i32, align 4
  %6 = alloca ptr, align 8
  %7 = alloca i32, align 4
  %8 = alloca i8, align 1
  %9 = alloca i32, align 4
  %10 = alloca i32, align 4
  %11 = alloca i32, align 4
  %12 = alloca i32, align 4
  %13 = alloca i32, align 4
  store i32 %0, ptr %5, align 4
  store ptr %1, ptr %6, align 8
  store i32 %2, ptr %7, align 4
  %14 = zext i1 %3 to i8
  store i8 %14, ptr %8, align 1
  %15 = load i32, ptr %7, align 4
  %16 = sub nsw i32 %15, 2
  store i32 %16, ptr %9, align 4
  store i32 0, ptr %10, align 4
  %17 = load i32, ptr %9, align 4
  %18 = icmp ne i32 %17, 0
  br i1 %18, label %19, label %25

19:                                               ; preds = %4
  %20 = load i32, ptr %5, align 4
  %21 = load i32, ptr %9, align 4
  %22 = load i8, ptr %8, align 1
  %23 = trunc i8 %22 to i1
  %24 = call noundef i32 @_ZN10OpenSubdiv6v3_6_03Bfr4qsub18CountUniformFacetsEiib(i32 noundef %20, i32 noundef %21, i1 noundef zeroext %23)
  store i32 %24, ptr %10, align 4
  br label %25

25:                                               ; preds = %19, %4
  store i32 0, ptr %11, align 4
  store i32 0, ptr %12, align 4
  br label %26

26:                                               ; preds = %101, %25
  %27 = load i32, ptr %12, align 4
  %28 = load i32, ptr %5, align 4
  %29 = icmp slt i32 %27, %28
  br i1 %29, label %30, label %104

30:                                               ; preds = %26
  %31 = load i8, ptr %8, align 1
  %32 = trunc i8 %31 to i1
  br i1 %32, label %33, label %43

33:                                               ; preds = %30
  %34 = load i32, ptr %9, align 4
  %35 = load ptr, ptr %6, align 8
  %36 = load i32, ptr %12, align 4
  %37 = sext i32 %36 to i64
  %38 = getelementptr inbounds i32, ptr %35, i64 %37
  %39 = load i32, ptr %38, align 4
  %40 = add nsw i32 %34, %39
  %41 = load i32, ptr %11, align 4
  %42 = add nsw i32 %41, %40
  store i32 %42, ptr %11, align 4
  br label %100

43:                                               ; preds = %30
  %44 = load ptr, ptr %6, align 8
  %45 = load i32, ptr %12, align 4
  %46 = sext i32 %45 to i64
  %47 = getelementptr inbounds i32, ptr %44, i64 %46
  %48 = load i32, ptr %47, align 4
  %49 = load i32, ptr %7, align 4
  %50 = icmp eq i32 %48, %49
  br i1 %50, label %51, label %68

51:                                               ; preds = %43
  %52 = load i32, ptr %9, align 4
  %53 = add nsw i32 %52, 1
  %54 = load i32, ptr %7, align 4
  %55 = load ptr, ptr %6, align 8
  %56 = load i32, ptr %12, align 4
  %57 = add nsw i32 %56, 1
  %58 = load i32, ptr %5, align 4
  %59 = srem i32 %57, %58
  %60 = sext i32 %59 to i64
  %61 = getelementptr inbounds i32, ptr %55, i64 %60
  %62 = load i32, ptr %61, align 4
  %63 = icmp ne i32 %54, %62
  %64 = zext i1 %63 to i32
  %65 = add nsw i32 %53, %64
  %66 = load i32, ptr %11, align 4
  %67 = add nsw i32 %66, %65
  store i32 %67, ptr %11, align 4
  br label %99

68:                                               ; preds = %43
  %69 = load ptr, ptr %6, align 8
  %70 = load i32, ptr %12, align 4
  %71 = sext i32 %70 to i64
  %72 = getelementptr inbounds i32, ptr %69, i64 %71
  %73 = call noundef nonnull align 4 dereferenceable(4) ptr @_ZSt3maxIiERKT_S2_S2_(ptr noundef nonnull align 4 dereferenceable(4) %9, ptr noundef nonnull align 4 dereferenceable(4) %72)
  %74 = load i32, ptr %73, align 4
  store i32 %74, ptr %13, align 4
  %75 = load i32, ptr %13, align 4
  %76 = and i32 %75, 1
  %77 = icmp eq i32 %76, 0
  br i1 %77, label %78, label %95

78:                                               ; preds = %68
  %79 = load i32, ptr %9, align 4
  %80 = and i32 %79, 1
  %81 = icmp ne i32 %80, 0
  br i1 %81, label %90, label %82

82:                                               ; preds = %78
  %83 = load ptr, ptr %6, align 8
  %84 = load i32, ptr %12, align 4
  %85 = sext i32 %84 to i64
  %86 = getelementptr inbounds i32, ptr %83, i64 %85
  %87 = load i32, ptr %86, align 4
  %88 = and i32 %87, 1
  %89 = icmp ne i32 %88, 0
  br label %90

90:                                               ; preds = %82, %78
  %91 = phi i1 [ true, %78 ], [ %89, %82 ]
  %92 = zext i1 %91 to i32
  %93 = load i32, ptr %13, align 4
  %94 = add nsw i32 %93, %92
  store i32 %94, ptr %13, align 4
  br label %95

95:                                               ; preds = %90, %68
  %96 = load i32, ptr %13, align 4
  %97 = load i32, ptr %11, align 4
  %98 = add nsw i32 %97, %96
  store i32 %98, ptr %11, align 4
  br label %99

99:                                               ; preds = %95, %51
  br label %100

100:                                              ; preds = %99, %33
  br label %101

101:                                              ; preds = %100
  %102 = load i32, ptr %12, align 4
  %103 = add nsw i32 %102, 1
  store i32 %103, ptr %12, align 4
  br label %26, !llvm.loop !24

104:                                              ; preds = %26
  %105 = load i32, ptr %10, align 4
  %106 = load i32, ptr %11, align 4
  %107 = add nsw i32 %105, %106
  ret i32 %107
}