; Function Attrs: mustprogress nofree norecurse nosync nounwind willreturn memory(argmem: read) uwtable
define noundef i32 @_ZN10OpenSubdiv6v3_6_03Bfr4qsub21CountNonUniformFacetsEiPKiib(i32 noundef %0, ptr nocapture noundef readonly %1, i32 noundef %2, i1 noundef zeroext %3) local_unnamed_addr #5 align 2 {
  %5 = add nsw i32 %2, -2
  %.not = icmp eq i32 %5, 0
  br i1 %.not, label %18, label %6

6:                                                ; preds = %4
  %7 = and i32 %2, 1
  %.not.i = icmp eq i32 %7, 0
  %8 = sdiv i32 %5, 2
  %9 = add nsw i32 %8, %7
  %10 = mul i32 %8, %0
  %11 = mul i32 %10, %9
  %12 = icmp eq i32 %0, 3
  %13 = select i1 %12, i32 1, i32 %0
  %14 = select i1 %.not.i, i32 0, i32 %13
  %15 = zext i1 %3 to i32
  %16 = shl i32 %11, %15
  %17 = add nsw i32 %16, %14
  br label %18

18:                                               ; preds = %6, %4
  %.029 = phi i32 [ %17, %6 ], [ 0, %4 ]
  %19 = icmp sgt i32 %0, 0
  br i1 %19, label %.lr.ph, label %._crit_edge

.lr.ph:                                           ; preds = %18
  %20 = add nsw i32 %2, -1
  br i1 %3, label %.lr.ph.split.us.preheader, label %.lr.ph.split

.lr.ph.split.us.preheader:                        ; preds = %.lr.ph
  %wide.trip.count61 = zext nneg i32 %0 to i64
  br label %.lr.ph.split.us

.lr.ph.split.us:                                  ; preds = %.lr.ph.split.us.preheader, %.lr.ph.split.us
  %indvars.iv58 = phi i64 [ 0, %.lr.ph.split.us.preheader ], [ %indvars.iv.next59, %.lr.ph.split.us ]
  %.02841.us = phi i32 [ 0, %.lr.ph.split.us.preheader ], [ %.1.us, %.lr.ph.split.us ]
  %21 = getelementptr inbounds i32, ptr %1, i64 %indvars.iv58
  %22 = load i32, ptr %21, align 4
  %23 = add nsw i32 %22, %5
  %.1.us = add nsw i32 %23, %.02841.us
  %indvars.iv.next59 = add nuw nsw i64 %indvars.iv58, 1
  %exitcond62.not = icmp eq i64 %indvars.iv.next59, %wide.trip.count61
  br i1 %exitcond62.not, label %._crit_edge, label %.lr.ph.split.us, !llvm.loop !30

.lr.ph.split:                                     ; preds = %.lr.ph
  %24 = and i32 %2, 1
  %.not33 = icmp eq i32 %24, 0
  %25 = zext nneg i32 %0 to i64
  br i1 %.not33, label %.lr.ph.split.split.us, label %.lr.ph.split.split

.lr.ph.split.split.us:                            ; preds = %.lr.ph.split, %45
  %indvars.iv53 = phi i64 [ %indvars.iv.next54, %45 ], [ 0, %.lr.ph.split ]
  %.02841.us44 = phi i32 [ %.1.us46, %45 ], [ 0, %.lr.ph.split ]
  %26 = getelementptr inbounds i32, ptr %1, i64 %indvars.iv53
  %27 = load i32, ptr %26, align 4
  %28 = icmp eq i32 %27, %2
  br i1 %28, label %35, label %29

29:                                               ; preds = %.lr.ph.split.split.us
  %.sroa.speculated.us = tail call i32 @llvm.smax.i32(i32 %5, i32 %27)
  %30 = and i32 %.sroa.speculated.us, 1
  %31 = icmp eq i32 %30, 0
  br i1 %31, label %32, label %45

32:                                               ; preds = %29
  %33 = and i32 %27, 1
  %34 = or disjoint i32 %33, %.sroa.speculated.us
  br label %45

35:                                               ; preds = %.lr.ph.split.split.us
  %36 = add nuw nsw i64 %indvars.iv53, 1
  %37 = icmp eq i64 %36, %25
  %38 = and i64 %36, 4294967295
  %39 = select i1 %37, i64 0, i64 %38
  %40 = getelementptr inbounds i32, ptr %1, i64 %39
  %41 = load i32, ptr %40, align 4
  %42 = icmp ne i32 %2, %41
  %43 = zext i1 %42 to i32
  %44 = add nsw i32 %20, %43
  br label %45

45:                                               ; preds = %32, %35, %29
  %.pn.us45 = phi i32 [ %44, %35 ], [ %34, %32 ], [ %.sroa.speculated.us, %29 ]
  %.1.us46 = add nsw i32 %.pn.us45, %.02841.us44
  %indvars.iv.next54 = add nuw nsw i64 %indvars.iv53, 1
  %exitcond57.not = icmp eq i64 %indvars.iv.next54, %25
  br i1 %exitcond57.not, label %._crit_edge, label %.lr.ph.split.split.us, !llvm.loop !30

.lr.ph.split.split:                               ; preds = %.lr.ph.split, %60
  %indvars.iv = phi i64 [ %indvars.iv.next.pre-phi, %60 ], [ 0, %.lr.ph.split ]
  %.02841 = phi i32 [ %.1, %60 ], [ 0, %.lr.ph.split ]
  %46 = getelementptr inbounds i32, ptr %1, i64 %indvars.iv
  %47 = load i32, ptr %46, align 4
  %48 = icmp eq i32 %47, %2
  br i1 %48, label %49, label %59

49:                                               ; preds = %.lr.ph.split.split
  %50 = add nuw nsw i64 %indvars.iv, 1
  %51 = icmp eq i64 %50, %25
  %52 = and i64 %50, 4294967295
  %53 = select i1 %51, i64 0, i64 %52
  %54 = getelementptr inbounds i32, ptr %1, i64 %53
  %55 = load i32, ptr %54, align 4
  %56 = icmp ne i32 %2, %55
  %57 = zext i1 %56 to i32
  %58 = or disjoint i32 %20, %57
  br label %60

59:                                               ; preds = %.lr.ph.split.split
  %.sroa.speculated = tail call i32 @llvm.smax.i32(i32 %5, i32 %47)
  %spec.select = or i32 %.sroa.speculated, 1
  %.pre = add nuw nsw i64 %indvars.iv, 1
  br label %60

60:                                               ; preds = %59, %49
  %indvars.iv.next.pre-phi = phi i64 [ %.pre, %59 ], [ %50, %49 ]
  %.pn = phi i32 [ %spec.select, %59 ], [ %58, %49 ]
  %.1 = add nsw i32 %.pn, %.02841
  %exitcond.not = icmp eq i64 %indvars.iv.next.pre-phi, %25
  br i1 %exitcond.not, label %._crit_edge, label %.lr.ph.split.split, !llvm.loop !30

._crit_edge:                                      ; preds = %60, %45, %.lr.ph.split.us, %18
  %.028.lcssa = phi i32 [ 0, %18 ], [ %.1.us, %.lr.ph.split.us ], [ %.1.us46, %45 ], [ %.1, %60 ]
  %61 = add nsw i32 %.028.lcssa, %.029
  ret i32 %61
}